target datalayout = "e-m:e-p270:32:32-p271:32:32-p272:64:64-i64:64-i128:128-f80:128-n8:16:32:64-S128"
target triple = "x86_64-pc-linux-gnu"

%struct.anon.0 = type { ptr, ptr, i32, i32, i32, i32, ptr, i64, i64, i64, i32, ptr, i32, i32, i32, i32, i32, ptr, i32, i32, ptr, ptr, i32, i64, i64, ptr, ptr, ptr, ptr, i32, ptr, ptr, ptr, i32, i32, ptr, i64, i64, i32, i32, ptr, ptr, i32, ptr }
%struct.SDL_VideoDevice = type { ptr, ptr, ptr, ptr, ptr, ptr, ptr, ptr, ptr, ptr, ptr, ptr, ptr, ptr, ptr, ptr, ptr, ptr, ptr, ptr, ptr, ptr, ptr, ptr, ptr, ptr, ptr, ptr, ptr, ptr, ptr, ptr, ptr, ptr, ptr, ptr, ptr, ptr, ptr, ptr, ptr, ptr, ptr, ptr, ptr, ptr, ptr, ptr, ptr, ptr, ptr, ptr, ptr, ptr, ptr, ptr, ptr, ptr, ptr, ptr, ptr, ptr, ptr, ptr, ptr, ptr, ptr, ptr, ptr, ptr, ptr, ptr, ptr, ptr, ptr, ptr, ptr, ptr, ptr, ptr, ptr, ptr, ptr, ptr, ptr, ptr, ptr, ptr, ptr, ptr, ptr, ptr, ptr, ptr, ptr, ptr, ptr, i64, i8, i8, i8, ptr, i32, ptr, %struct.SDL_Rect, ptr, ptr, i32, ptr, ptr, ptr, ptr, i64, ptr, i8, i32, i32, %struct.anon.1, ptr, ptr, ptr, ptr, ptr, ptr, %struct.SDL_AtomicInt, %struct.SDL_AtomicInt, i8, %struct.anon.2, ptr, ptr, ptr, ptr, ptr }
%struct.SDL_Rect = type { i32, i32, i32, i32 }
%struct.anon.1 = type { i32, i32, i32, i32, i32, i32, i32, i32, i32, i32, i32, i32, i32, i32, i32, i32, i32, i32, i32, i32, i32, i32, i32, i32, i32, i32, i32, i32, i32, [256 x i8], ptr }
%struct.SDL_AtomicInt = type { i32 }
%struct.anon.2 = type { ptr, ptr, i32, [256 x i8], ptr }
%struct.SDL_VideoDisplay = type { i32, ptr, i32, i32, ptr, %struct.SDL_DisplayMode, ptr, i32, i32, float, %struct.SDL_HDROutputProperties, i8, ptr, ptr, i32, ptr }
%struct.SDL_DisplayMode = type { i32, i32, i32, i32, float, float, i32, i32, ptr }
%struct.SDL_HDROutputProperties = type { float, float }
%struct.SDL_DisplayData = type { i32, ptr, i32, i32, i32, i32, i64, i8, i64, [16 x i8] }
%struct.SDL_VideoData = type { ptr, ptr, i32, ptr, i64, i32, ptr, i32, i64, i64, %struct.X11_ClipboardData, %struct.X11_ClipboardData, ptr, i64, %struct.X11_SettingsData, i8, %struct.anon.3, [256 x i32], i8, i8, i8, i64, i8, %struct.SDL_Point, i32, ptr, i32, i8, i32, %struct.anon.4, i8, i64, ptr, ptr, i8, i8, i8 }
%struct.X11_ClipboardData = type { ptr, ptr, ptr, i64, i32 }
%struct.X11_SettingsData = type { ptr }
%struct.anon.3 = type { i64, i64, i64, i64, i64, i64, i64, i64, i64, i64, i64, i64, i64, i64, i64, i64, i64, i64, i64, i64, i64, i64, i64, i64, i64, i64, i64, i64, i64, i64, i64, i64, i64, i64, i64, i64, i64, i64, i64, i64, i64, i64, i64, i64, i64, i64, i64, i64, i64, i64, i64, i64, i64 }
%struct.SDL_Point = type { i32, i32 }
%struct.anon.4 = type { ptr, i32, i32, i32, i16, i32, i32 }
%struct.Screen = type { ptr, ptr, i64, i32, i32, i32, i32, i32, ptr, i32, ptr, ptr, i64, i64, i64, i32, i32, i32, i32, i64 }
%struct._XRROutputInfo = type { i64, i64, ptr, i32, i64, i64, i16, i16, i32, ptr, i32, ptr, i32, i32, ptr }

@X11_XRRGetScreenResources = external global ptr, align 8
@X11_XRRGetOutputInfo = external global ptr, align 8
@X11_XRRFreeOutputInfo = external global ptr, align 8
@X11_XRRFreeScreenResources = external global ptr, align 8

; Function Attrs: nounwind uwtable
define hidden zeroext i1 @X11_GetDisplayModes(ptr noundef %0, ptr noundef %1) #0 {
  %3 = alloca ptr, align 8
  %4 = alloca ptr, align 8
  %5 = alloca ptr, align 8
  %6 = alloca %struct.SDL_DisplayMode, align 8
  %7 = alloca ptr, align 8
  %8 = alloca ptr, align 8
  %9 = alloca ptr, align 8
  %10 = alloca ptr, align 8
  %11 = alloca i32, align 4
  store ptr %0, ptr %3, align 8
  store ptr %1, ptr %4, align 8
  call void @llvm.lifetime.start.p0(i64 8, ptr %5) #6
  %12 = load ptr, ptr %4, align 8
  %13 = getelementptr inbounds nuw %struct.SDL_VideoDisplay, ptr %12, i32 0, i32 15
  %14 = load ptr, ptr %13, align 8
  store ptr %14, ptr %5, align 8
  call void @llvm.lifetime.start.p0(i64 40, ptr %6) #6
  call void @llvm.memset.p0.i64(ptr align 8 %6, i8 0, i64 40, i1 false)
  %15 = load ptr, ptr %4, align 8
  %16 = getelementptr inbounds nuw %struct.SDL_VideoDisplay, ptr %15, i32 0, i32 5
  %17 = getelementptr inbounds nuw %struct.SDL_DisplayMode, ptr %16, i32 0, i32 1
  %18 = load i32, ptr %17, align 4
  %19 = getelementptr inbounds nuw %struct.SDL_DisplayMode, ptr %6, i32 0, i32 1
  store i32 %18, ptr %19, align 4
  %20 = load ptr, ptr %5, align 8
  %21 = getelementptr inbounds nuw %struct.SDL_DisplayData, ptr %20, i32 0, i32 7
  %22 = load i8, ptr %21, align 8, !range !10, !noundef !11
  %23 = trunc i8 %22 to i1
  br i1 %23, label %24, label %105

24:                                               ; preds = %2
  call void @llvm.lifetime.start.p0(i64 8, ptr %7) #6
  %25 = load ptr, ptr %3, align 8
  %26 = getelementptr inbounds nuw %struct.SDL_VideoDevice, ptr %25, i32 0, i32 128
  %27 = load ptr, ptr %26, align 8
  %28 = getelementptr inbounds nuw %struct.SDL_VideoData, ptr %27, i32 0, i32 0
  %29 = load ptr, ptr %28, align 8
  store ptr %29, ptr %7, align 8
  call void @llvm.lifetime.start.p0(i64 8, ptr %8) #6
  %30 = load ptr, ptr @X11_XRRGetScreenResources, align 8
  %31 = load ptr, ptr %7, align 8
  %32 = load ptr, ptr %7, align 8
  %33 = getelementptr inbounds nuw %struct.anon.0, ptr %32, i32 0, i32 35
  %34 = load ptr, ptr %33, align 8
  %35 = load ptr, ptr %5, align 8
  %36 = getelementptr inbounds nuw %struct.SDL_DisplayData, ptr %35, i32 0, i32 0
  %37 = load i32, ptr %36, align 8
  %38 = sext i32 %37 to i64
  %39 = getelementptr inbounds %struct.Screen, ptr %34, i64 %38
  %40 = getelementptr inbounds nuw %struct.Screen, ptr %39, i32 0, i32 2
  %41 = load i64, ptr %40, align 8
  %42 = call ptr %30(ptr noundef %31, i64 noundef %41)
  store ptr %42, ptr %8, align 8
  %43 = load ptr, ptr %8, align 8
  %44 = icmp ne ptr %43, null
  br i1 %44, label %45, label %104

45:                                               ; preds = %24
  call void @llvm.lifetime.start.p0(i64 8, ptr %9) #6
  call void @llvm.lifetime.start.p0(i64 8, ptr %10) #6
  call void @llvm.lifetime.start.p0(i64 4, ptr %11) #6
  %46 = load ptr, ptr @X11_XRRGetOutputInfo, align 8
  %47 = load ptr, ptr %7, align 8
  %48 = load ptr, ptr %8, align 8
  %49 = load ptr, ptr %5, align 8
  %50 = getelementptr inbounds nuw %struct.SDL_DisplayData, ptr %49, i32 0, i32 8
  %51 = load i64, ptr %50, align 8
  %52 = call ptr %46(ptr noundef %47, ptr noundef %48, i64 noundef %51)
  store ptr %52, ptr %10, align 8
  %53 = load ptr, ptr %10, align 8
  %54 = icmp ne ptr %53, null
  br i1 %54, label %55, label %99

55:                                               ; preds = %45
  %56 = load ptr, ptr %10, align 8
  %57 = getelementptr inbounds nuw %struct._XRROutputInfo, ptr %56, i32 0, i32 6
  %58 = load i16, ptr %57, align 8
  %59 = zext i16 %58 to i32
  %60 = icmp ne i32 %59, 1
  br i1 %60, label %61, label %99

61:                                               ; preds = %55
  store i32 0, ptr %11, align 4
  br label %62

62:                                               ; preds = %95, %61
  %63 = load i32, ptr %11, align 4
  %64 = load ptr, ptr %10, align 8
  %65 = getelementptr inbounds nuw %struct._XRROutputInfo, ptr %64, i32 0, i32 12
  %66 = load i32, ptr %65, align 8
  %67 = icmp slt i32 %63, %66
  br i1 %67, label %68, label %98

68:                                               ; preds = %62
  %69 = call noalias ptr @SDL_calloc_REAL(i64 noundef 1, i64 noundef 8) #7
  store ptr %69, ptr %9, align 8
  %70 = load ptr, ptr %9, align 8
  %71 = icmp ne ptr %70, null
  br i1 %71, label %73, label %72

72:                                               ; preds = %68
  br label %95

73:                                               ; preds = %68
  %74 = load ptr, ptr %9, align 8
  %75 = getelementptr inbounds nuw %struct.SDL_DisplayMode, ptr %6, i32 0, i32 8
  store ptr %74, ptr %75, align 8
  %76 = load ptr, ptr %7, align 8
  %77 = load ptr, ptr %8, align 8
  %78 = load ptr, ptr %10, align 8
  %79 = getelementptr inbounds nuw %struct._XRROutputInfo, ptr %78, i32 0, i32 1
  %80 = load i64, ptr %79, align 8
  %81 = load ptr, ptr %10, align 8
  %82 = getelementptr inbounds nuw %struct._XRROutputInfo, ptr %81, i32 0, i32 14
  %83 = load ptr, ptr %82, align 8
  %84 = load i32, ptr %11, align 4
  %85 = sext i32 %84 to i64
  %86 = getelementptr inbounds i64, ptr %83, i64 %85
  %87 = load i64, ptr %86, align 8
  %88 = call zeroext i1 @SetXRandRModeInfo(ptr noundef %76, ptr noundef %77, i64 noundef %80, i64 noundef %87, ptr noundef %6)
  br i1 %88, label %89, label %92

89:                                               ; preds = %73
  %90 = load ptr, ptr %4, align 8
  %91 = call zeroext i1 @SDL_AddFullscreenDisplayMode(ptr noundef %90, ptr noundef %6)
  br i1 %91, label %94, label %92

92:                                               ; preds = %89, %73
  %93 = load ptr, ptr %9, align 8
  call void @SDL_free_REAL(ptr noundef %93)
  br label %94

94:                                               ; preds = %92, %89
  br label %95

95:                                               ; preds = %94, %72
  %96 = load i32, ptr %11, align 4
  %97 = add nsw i32 %96, 1
  store i32 %97, ptr %11, align 4
  br label %62, !llvm.loop !12

98:                                               ; preds = %62
  br label %99

99:                                               ; preds = %98, %55, %45
  %100 = load ptr, ptr @X11_XRRFreeOutputInfo, align 8
  %101 = load ptr, ptr %10, align 8
  call void %100(ptr noundef %101)
  %102 = load ptr, ptr @X11_XRRFreeScreenResources, align 8
  %103 = load ptr, ptr %8, align 8
  call void %102(ptr noundef %103)
  call void @llvm.lifetime.end.p0(i64 4, ptr %11) #6
  call void @llvm.lifetime.end.p0(i64 8, ptr %10) #6
  call void @llvm.lifetime.end.p0(i64 8, ptr %9) #6
  br label %104

104:                                              ; preds = %99, %24
  call void @llvm.lifetime.end.p0(i64 8, ptr %8) #6
  call void @llvm.lifetime.end.p0(i64 8, ptr %7) #6
  br label %105

105:                                              ; preds = %104, %2
  call void @llvm.lifetime.end.p0(i64 40, ptr %6) #6
  call void @llvm.lifetime.end.p0(i64 8, ptr %5) #6
  ret i1 true
}