; Function Attrs: nounwind uwtable
define hidden noundef zeroext i1 @X11_GetDisplayModes(ptr noundef readonly captures(none) %0, ptr noundef %1) local_unnamed_addr #0 {
  %3 = alloca %struct.SDL_DisplayMode, align 8
  %4 = getelementptr inbounds nuw i8, ptr %1, i64 128
  %5 = load ptr, ptr %4, align 8
  call void @llvm.lifetime.start.p0(i64 40, ptr nonnull %3) #8
  call void @llvm.memset.p0.i64(ptr noundef nonnull align 8 dereferenceable(40) %3, i8 0, i64 40, i1 false)
  %6 = getelementptr inbounds nuw i8, ptr %1, i64 36
  %7 = load i32, ptr %6, align 4
  %8 = getelementptr inbounds nuw i8, ptr %3, i64 4
  store i32 %7, ptr %8, align 4
  %9 = getelementptr inbounds nuw i8, ptr %5, i64 40
  %10 = load i8, ptr %9, align 8, !range !20, !noundef !21
  %11 = trunc nuw i8 %10 to i1
  br i1 %11, label %12, label %55

12:                                               ; preds = %2
  %13 = getelementptr inbounds nuw i8, ptr %0, i64 1656
  %14 = load ptr, ptr %13, align 8
  %15 = load ptr, ptr %14, align 8
  %16 = load ptr, ptr @X11_XRRGetScreenResources, align 8
  %17 = getelementptr inbounds nuw i8, ptr %15, i64 232
  %18 = load ptr, ptr %17, align 8
  %19 = load i32, ptr %5, align 8
  %20 = sext i32 %19 to i64
  %21 = getelementptr inbounds %struct.Screen, ptr %18, i64 %20, i32 2
  %22 = load i64, ptr %21, align 8
  %23 = tail call ptr %16(ptr noundef %15, i64 noundef %22) #8
  %.not = icmp eq ptr %23, null
  br i1 %.not, label %55, label %24

24:                                               ; preds = %12
  %25 = load ptr, ptr @X11_XRRGetOutputInfo, align 8
  %26 = getelementptr inbounds nuw i8, ptr %5, i64 48
  %27 = load i64, ptr %26, align 8
  %28 = tail call ptr %25(ptr noundef nonnull %15, ptr noundef nonnull %23, i64 noundef %27) #8
  %.not29 = icmp eq ptr %28, null
  br i1 %.not29, label %.loopexit, label %29

29:                                               ; preds = %24
  %30 = getelementptr inbounds nuw i8, ptr %28, i64 48
  %31 = load i16, ptr %30, align 8
  %.not30 = icmp eq i16 %31, 1
  br i1 %.not30, label %.loopexit, label %.preheader

.preheader:                                       ; preds = %29
  %32 = getelementptr inbounds nuw i8, ptr %28, i64 80
  %33 = load i32, ptr %32, align 8
  %34 = icmp sgt i32 %33, 0
  br i1 %34, label %.lr.ph, label %.loopexit

.lr.ph:                                           ; preds = %.preheader
  %35 = getelementptr inbounds nuw i8, ptr %3, i64 32
  %36 = getelementptr inbounds nuw i8, ptr %28, i64 8
  %37 = getelementptr inbounds nuw i8, ptr %28, i64 88
  br label %38

38:                                               ; preds = %.lr.ph, %49
  %indvars.iv = phi i64 [ 0, %.lr.ph ], [ %indvars.iv.next, %49 ]
  %39 = call noalias dereferenceable_or_null(8) ptr @SDL_calloc_REAL(i64 noundef 1, i64 noundef 8) #9
  %.not31 = icmp eq ptr %39, null
  br i1 %.not31, label %49, label %40

40:                                               ; preds = %38
  store ptr %39, ptr %35, align 8
  %41 = load i64, ptr %36, align 8
  %42 = load ptr, ptr %37, align 8
  %43 = getelementptr inbounds nuw i64, ptr %42, i64 %indvars.iv
  %44 = load i64, ptr %43, align 8
  %45 = call fastcc zeroext i1 @SetXRandRModeInfo(ptr noundef nonnull %15, ptr noundef %23, i64 noundef %41, i64 noundef %44, ptr noundef %3)
  br i1 %45, label %46, label %48

46:                                               ; preds = %40
  %47 = call zeroext i1 @SDL_AddFullscreenDisplayMode(ptr noundef %1, ptr noundef nonnull %3) #8
  br i1 %47, label %49, label %48

48:                                               ; preds = %46, %40
  call void @SDL_free_REAL(ptr noundef nonnull %39) #8
  br label %49

49:                                               ; preds = %46, %48, %38
  %indvars.iv.next = add nuw nsw i64 %indvars.iv, 1
  %50 = load i32, ptr %32, align 8
  %51 = sext i32 %50 to i64
  %52 = icmp slt i64 %indvars.iv.next, %51
  br i1 %52, label %38, label %.loopexit, !llvm.loop !22

.loopexit:                                        ; preds = %49, %.preheader, %29, %24
  %53 = load ptr, ptr @X11_XRRFreeOutputInfo, align 8
  call void %53(ptr noundef %28) #8
  %54 = load ptr, ptr @X11_XRRFreeScreenResources, align 8
  call void %54(ptr noundef nonnull %23) #8
  br label %55

55:                                               ; preds = %12, %.loopexit, %2
  call void @llvm.lifetime.end.p0(i64 40, ptr nonnull %3) #8
  ret i1 true
}